target datalayout = "e-m:e-p270:32:32-p271:32:32-p272:64:64-i64:64-i128:128-f80:128-n8:16:32:64-S128"
target triple = "x86_64-pc-linux-gnu"

%struct.PLwdatum = type { ptr, ptr, i8, ptr }
%struct.PLpgSQL_raise_option = type { i32, ptr }

@.str.48 = private unnamed_addr constant [38 x i8] c"unexpected end of function definition\00", align 1
@.str.62 = private unnamed_addr constant [7 x i8] c", or ;\00", align 1
@.str.131 = private unnamed_addr constant [8 x i8] c"errcode\00", align 1
@.str.132 = private unnamed_addr constant [8 x i8] c"message\00", align 1
@.str.133 = private unnamed_addr constant [7 x i8] c"detail\00", align 1
@.str.134 = private unnamed_addr constant [5 x i8] c"hint\00", align 1
@.str.135 = private unnamed_addr constant [7 x i8] c"column\00", align 1
@.str.136 = private unnamed_addr constant [11 x i8] c"constraint\00", align 1
@.str.137 = private unnamed_addr constant [9 x i8] c"datatype\00", align 1
@.str.138 = private unnamed_addr constant [6 x i8] c"table\00", align 1
@.str.139 = private unnamed_addr constant [7 x i8] c"schema\00", align 1
@.str.140 = private unnamed_addr constant [36 x i8] c"unrecognized RAISE statement option\00", align 1
@.str.141 = private unnamed_addr constant [27 x i8] c"syntax error, expected \22=\22\00", align 1

; Function Attrs: nounwind uwtable
define internal ptr @read_sql_expression2(i32 noundef %0, i32 noundef %1, ptr noundef %2, ptr noundef %3, ptr noundef %4, ptr noundef %5, ptr noundef %6) #0 {
  %8 = alloca i32, align 4
  %9 = alloca i32, align 4
  %10 = alloca ptr, align 8
  %11 = alloca ptr, align 8
  %12 = alloca ptr, align 8
  %13 = alloca ptr, align 8
  %14 = alloca ptr, align 8
  store i32 %0, ptr %8, align 4
  store i32 %1, ptr %9, align 4
  store ptr %2, ptr %10, align 8
  store ptr %3, ptr %11, align 8
  store ptr %4, ptr %12, align 8
  store ptr %5, ptr %13, align 8
  store ptr %6, ptr %14, align 8
  %15 = load i32, ptr %8, align 4
  %16 = load i32, ptr %9, align 4
  %17 = load ptr, ptr %10, align 8
  %18 = load ptr, ptr %11, align 8
  %19 = load ptr, ptr %12, align 8
  %20 = load ptr, ptr %13, align 8
  %21 = load ptr, ptr %14, align 8
  %22 = call ptr @read_sql_construct(i32 noundef %15, i32 noundef %16, i32 noundef 0, ptr noundef %17, i32 noundef 2, i1 noundef zeroext true, i1 noundef zeroext true, ptr noundef null, ptr noundef %18, ptr noundef %19, ptr noundef %20, ptr noundef %21)
  ret ptr %22
}

; Function Attrs: nounwind uwtable
define internal zeroext i1 @tok_is_keyword(i32 noundef %0, ptr noundef %1, i32 noundef %2, ptr noundef %3) #0 {
  %5 = alloca i1, align 1
  %6 = alloca i32, align 4
  %7 = alloca ptr, align 8
  %8 = alloca i32, align 4
  %9 = alloca ptr, align 8
  store i32 %0, ptr %6, align 4
  store ptr %1, ptr %7, align 8
  store i32 %2, ptr %8, align 4
  store ptr %3, ptr %9, align 8
  %10 = load i32, ptr %6, align 4
  %11 = load i32, ptr %8, align 4
  %12 = icmp eq i32 %10, %11
  br i1 %12, label %13, label %14

13:                                               ; preds = %4
  store i1 true, ptr %5, align 1
  br label %38

14:                                               ; preds = %4
  %15 = load i32, ptr %6, align 4
  %16 = icmp eq i32 %15, 277
  br i1 %16, label %17, label %36

17:                                               ; preds = %14
  %18 = load ptr, ptr %7, align 8
  %19 = getelementptr inbounds nuw %struct.PLwdatum, ptr %18, i32 0, i32 2
  %20 = load i8, ptr %19, align 8, !range !3, !noundef !4
  %21 = trunc i8 %20 to i1
  br i1 %21, label %35, label %22

22:                                               ; preds = %17
  %23 = load ptr, ptr %7, align 8
  %24 = getelementptr inbounds nuw %struct.PLwdatum, ptr %23, i32 0, i32 1
  %25 = load ptr, ptr %24, align 8
  %26 = icmp ne ptr %25, null
  br i1 %26, label %27, label %35

27:                                               ; preds = %22
  %28 = load ptr, ptr %7, align 8
  %29 = getelementptr inbounds nuw %struct.PLwdatum, ptr %28, i32 0, i32 1
  %30 = load ptr, ptr %29, align 8
  %31 = load ptr, ptr %9, align 8
  %32 = call i32 @strcmp(ptr noundef %30, ptr noundef %31) #11
  %33 = icmp eq i32 %32, 0
  br i1 %33, label %34, label %35

34:                                               ; preds = %27
  store i1 true, ptr %5, align 1
  br label %38

35:                                               ; preds = %27, %22, %17
  br label %36

36:                                               ; preds = %35, %14
  br label %37

37:                                               ; preds = %36
  store i1 false, ptr %5, align 1
  br label %38

38:                                               ; preds = %37, %34, %13
  %39 = load i1, ptr %5, align 1
  ret i1 %39
}

; Function Attrs: nounwind uwtable
define internal ptr @read_raise_options(ptr noundef %0, ptr noundef %1, ptr noundef %2) #0 {
  %4 = alloca ptr, align 8
  %5 = alloca ptr, align 8
  %6 = alloca ptr, align 8
  %7 = alloca ptr, align 8
  %8 = alloca ptr, align 8
  %9 = alloca i32, align 4
  %10 = alloca i32, align 4
  store ptr %0, ptr %4, align 8
  store ptr %1, ptr %5, align 8
  store ptr %2, ptr %6, align 8
  call void @llvm.lifetime.start.p0(i64 8, ptr %7) #10
  store ptr null, ptr %7, align 8
  br label %11

11:                                               ; preds = %124, %3
  call void @llvm.lifetime.start.p0(i64 8, ptr %8) #10
  call void @llvm.lifetime.start.p0(i64 4, ptr %9) #10
  %12 = load ptr, ptr %4, align 8
  %13 = load ptr, ptr %5, align 8
  %14 = load ptr, ptr %6, align 8
  %15 = call i32 @plpgsql_yylex(ptr noundef %12, ptr noundef %13, ptr noundef %14)
  store i32 %15, ptr %9, align 4
  %16 = icmp eq i32 %15, 0
  br i1 %16, label %17, label %20

17:                                               ; preds = %11
  %18 = load ptr, ptr %5, align 8
  %19 = load ptr, ptr %6, align 8
  call void @plpgsql_yyerror(ptr noundef %18, ptr noundef null, ptr noundef %19, ptr noundef @.str.48) #13
  unreachable

20:                                               ; preds = %11
  %21 = call ptr @palloc(i64 noundef 16)
  store ptr %21, ptr %8, align 8
  %22 = load i32, ptr %9, align 4
  %23 = load ptr, ptr %4, align 8
  %24 = call zeroext i1 @tok_is_keyword(i32 noundef %22, ptr noundef %23, i32 noundef 314, ptr noundef @.str.131)
  br i1 %24, label %25, label %28

25:                                               ; preds = %20
  %26 = load ptr, ptr %8, align 8
  %27 = getelementptr inbounds nuw %struct.PLpgSQL_raise_option, ptr %26, i32 0, i32 0
  store i32 0, ptr %27, align 8
  br label %95

28:                                               ; preds = %20
  %29 = load i32, ptr %9, align 4
  %30 = load ptr, ptr %4, align 8
  %31 = call zeroext i1 @tok_is_keyword(i32 noundef %29, ptr noundef %30, i32 noundef 338, ptr noundef @.str.132)
  br i1 %31, label %32, label %35

32:                                               ; preds = %28
  %33 = load ptr, ptr %8, align 8
  %34 = getelementptr inbounds nuw %struct.PLpgSQL_raise_option, ptr %33, i32 0, i32 0
  store i32 1, ptr %34, align 8
  br label %94

35:                                               ; preds = %28
  %36 = load i32, ptr %9, align 4
  %37 = load ptr, ptr %4, align 8
  %38 = call zeroext i1 @tok_is_keyword(i32 noundef %36, ptr noundef %37, i32 noundef 307, ptr noundef @.str.133)
  br i1 %38, label %39, label %42

39:                                               ; preds = %35
  %40 = load ptr, ptr %8, align 8
  %41 = getelementptr inbounds nuw %struct.PLpgSQL_raise_option, ptr %40, i32 0, i32 0
  store i32 2, ptr %41, align 8
  br label %93

42:                                               ; preds = %35
  %43 = load i32, ptr %9, align 4
  %44 = load ptr, ptr %4, align 8
  %45 = call zeroext i1 @tok_is_keyword(i32 noundef %43, ptr noundef %44, i32 noundef 326, ptr noundef @.str.134)
  br i1 %45, label %46, label %49

46:                                               ; preds = %42
  %47 = load ptr, ptr %8, align 8
  %48 = getelementptr inbounds nuw %struct.PLpgSQL_raise_option, ptr %47, i32 0, i32 0
  store i32 3, ptr %48, align 8
  br label %92

49:                                               ; preds = %42
  %50 = load i32, ptr %9, align 4
  %51 = load ptr, ptr %4, align 8
  %52 = call zeroext i1 @tok_is_keyword(i32 noundef %50, ptr noundef %51, i32 noundef 294, ptr noundef @.str.135)
  br i1 %52, label %53, label %56

53:                                               ; preds = %49
  %54 = load ptr, ptr %8, align 8
  %55 = getelementptr inbounds nuw %struct.PLpgSQL_raise_option, ptr %54, i32 0, i32 0
  store i32 4, ptr %55, align 8
  br label %91

56:                                               ; preds = %49
  %57 = load i32, ptr %9, align 4
  %58 = load ptr, ptr %4, align 8
  %59 = call zeroext i1 @tok_is_keyword(i32 noundef %57, ptr noundef %58, i32 noundef 298, ptr noundef @.str.136)
  br i1 %59, label %60, label %63

60:                                               ; preds = %56
  %61 = load ptr, ptr %8, align 8
  %62 = getelementptr inbounds nuw %struct.PLpgSQL_raise_option, ptr %61, i32 0, i32 0
  store i32 5, ptr %62, align 8
  br label %90

63:                                               ; preds = %56
  %64 = load i32, ptr %9, align 4
  %65 = load ptr, ptr %4, align 8
  %66 = call zeroext i1 @tok_is_keyword(i32 noundef %64, ptr noundef %65, i32 noundef 303, ptr noundef @.str.137)
  br i1 %66, label %67, label %70

67:                                               ; preds = %63
  %68 = load ptr, ptr %8, align 8
  %69 = getelementptr inbounds nuw %struct.PLpgSQL_raise_option, ptr %68, i32 0, i32 0
  store i32 6, ptr %69, align 8
  br label %89

70:                                               ; preds = %63
  %71 = load i32, ptr %9, align 4
  %72 = load ptr, ptr %4, align 8
  %73 = call zeroext i1 @tok_is_keyword(i32 noundef %71, ptr noundef %72, i32 noundef 374, ptr noundef @.str.138)
  br i1 %73, label %74, label %77

74:                                               ; preds = %70
  %75 = load ptr, ptr %8, align 8
  %76 = getelementptr inbounds nuw %struct.PLpgSQL_raise_option, ptr %75, i32 0, i32 0
  store i32 7, ptr %76, align 8
  br label %88

77:                                               ; preds = %70
  %78 = load i32, ptr %9, align 4
  %79 = load ptr, ptr %4, align 8
  %80 = call zeroext i1 @tok_is_keyword(i32 noundef %78, ptr noundef %79, i32 noundef 367, ptr noundef @.str.139)
  br i1 %80, label %81, label %84

81:                                               ; preds = %77
  %82 = load ptr, ptr %8, align 8
  %83 = getelementptr inbounds nuw %struct.PLpgSQL_raise_option, ptr %82, i32 0, i32 0
  store i32 8, ptr %83, align 8
  br label %87

84:                                               ; preds = %77
  %85 = load ptr, ptr %5, align 8
  %86 = load ptr, ptr %6, align 8
  call void @plpgsql_yyerror(ptr noundef %85, ptr noundef null, ptr noundef %86, ptr noundef @.str.140) #13
  unreachable

87:                                               ; preds = %81
  br label %88

88:                                               ; preds = %87, %74
  br label %89

89:                                               ; preds = %88, %67
  br label %90

90:                                               ; preds = %89, %60
  br label %91

91:                                               ; preds = %90, %53
  br label %92

92:                                               ; preds = %91, %46
  br label %93

93:                                               ; preds = %92, %39
  br label %94

94:                                               ; preds = %93, %32
  br label %95

95:                                               ; preds = %94, %25
  %96 = load ptr, ptr %4, align 8
  %97 = load ptr, ptr %5, align 8
  %98 = load ptr, ptr %6, align 8
  %99 = call i32 @plpgsql_yylex(ptr noundef %96, ptr noundef %97, ptr noundef %98)
  store i32 %99, ptr %9, align 4
  %100 = load i32, ptr %9, align 4
  %101 = icmp ne i32 %100, 61
  br i1 %101, label %102, label %108

102:                                              ; preds = %95
  %103 = load i32, ptr %9, align 4
  %104 = icmp ne i32 %103, 270
  br i1 %104, label %105, label %108

105:                                              ; preds = %102
  %106 = load ptr, ptr %5, align 8
  %107 = load ptr, ptr %6, align 8
  call void @plpgsql_yyerror(ptr noundef %106, ptr noundef null, ptr noundef %107, ptr noundef @.str.141) #13
  unreachable

108:                                              ; preds = %102, %95
  %109 = load ptr, ptr %4, align 8
  %110 = load ptr, ptr %5, align 8
  %111 = load ptr, ptr %6, align 8
  %112 = call ptr @read_sql_expression2(i32 noundef 44, i32 noundef 59, ptr noundef @.str.62, ptr noundef %9, ptr noundef %109, ptr noundef %110, ptr noundef %111)
  %113 = load ptr, ptr %8, align 8
  %114 = getelementptr inbounds nuw %struct.PLpgSQL_raise_option, ptr %113, i32 0, i32 1
  store ptr %112, ptr %114, align 8
  %115 = load ptr, ptr %7, align 8
  %116 = load ptr, ptr %8, align 8
  %117 = call ptr @lappend(ptr noundef %115, ptr noundef %116)
  store ptr %117, ptr %7, align 8
  %118 = load i32, ptr %9, align 4
  %119 = icmp eq i32 %118, 59
  br i1 %119, label %120, label %121

120:                                              ; preds = %108
  store i32 2, ptr %10, align 4
  br label %122

121:                                              ; preds = %108
  store i32 0, ptr %10, align 4
  br label %122

122:                                              ; preds = %121, %120
  call void @llvm.lifetime.end.p0(i64 4, ptr %9) #10
  call void @llvm.lifetime.end.p0(i64 8, ptr %8) #10
  %123 = load i32, ptr %10, align 4
  switch i32 %123, label %127 [
    i32 0, label %124
    i32 2, label %125
  ]

124:                                              ; preds = %122
  br label %11

125:                                              ; preds = %122
  %126 = load ptr, ptr %7, align 8
  store i32 1, ptr %10, align 4
  call void @llvm.lifetime.end.p0(i64 8, ptr %7) #10
  ret ptr %126

127:                                              ; preds = %122
  unreachable
}