; Function Attrs: nounwind uwtable
define internal fastcc ptr @read_raise_options(ptr noundef nonnull %0, ptr noundef nonnull %1, ptr noundef %2) unnamed_addr #0 {
  %4 = alloca i32, align 4
  %5 = getelementptr inbounds nuw i8, ptr %0, i64 16
  %6 = getelementptr inbounds nuw i8, ptr %0, i64 8
  br label %7

7:                                                ; preds = %59, %3
  %.038 = phi ptr [ null, %3 ], [ %62, %59 ]
  call void @llvm.lifetime.start.p0(i64 4, ptr nonnull %4) #12
  %8 = call i32 @plpgsql_yylex(ptr noundef nonnull %0, ptr noundef nonnull %1, ptr noundef %2) #12
  store i32 %8, ptr %4, align 4
  %9 = icmp eq i32 %8, 0
  br i1 %9, label %10, label %11

10:                                               ; preds = %7
  call void @plpgsql_yyerror(ptr noundef nonnull %1, ptr noundef null, ptr noundef %2, ptr noundef nonnull @.str.48) #15
  unreachable

11:                                               ; preds = %7
  %12 = call ptr @palloc(i64 noundef 16) #12
  %13 = load i32, ptr %4, align 4
  switch i32 %13, label %tok_is_keyword.exit62 [
    i32 314, label %56
    i32 277, label %14
    i32 338, label %25
    i32 307, label %30
    i32 326, label %34
    i32 294, label %38
    i32 298, label %42
    i32 303, label %47
    i32 374, label %51
    i32 367, label %55
  ]

14:                                               ; preds = %11
  %15 = load i8, ptr %5, align 8, !range !3, !noundef !4
  %16 = trunc nuw i8 %15 to i1
  br i1 %16, label %tok_is_keyword.exit62, label %17

17:                                               ; preds = %14
  %18 = load ptr, ptr %6, align 8
  %.not.i = icmp eq ptr %18, null
  br i1 %.not.i, label %tok_is_keyword.exit62, label %19

19:                                               ; preds = %17
  %20 = call i32 @strcmp(ptr noundef nonnull dereferenceable(1) %18, ptr noundef nonnull dereferenceable(8) @.str.131) #13
  %21 = icmp eq i32 %20, 0
  br i1 %21, label %56, label %22

22:                                               ; preds = %19
  %23 = call i32 @strcmp(ptr noundef nonnull dereferenceable(1) %18, ptr noundef nonnull dereferenceable(8) @.str.132) #13
  %24 = icmp eq i32 %23, 0
  br i1 %24, label %25, label %26

25:                                               ; preds = %11, %22
  br label %56

26:                                               ; preds = %22
  %.pr = load ptr, ptr %6, align 8
  %.not.i43 = icmp eq ptr %.pr, null
  br i1 %.not.i43, label %tok_is_keyword.exit62, label %27

27:                                               ; preds = %26
  %28 = call i32 @strcmp(ptr noundef nonnull dereferenceable(1) %.pr, ptr noundef nonnull dereferenceable(7) @.str.133) #13
  %29 = icmp eq i32 %28, 0
  br i1 %29, label %30, label %31

30:                                               ; preds = %11, %27
  br label %56

31:                                               ; preds = %27
  %32 = call i32 @strcmp(ptr noundef nonnull dereferenceable(1) %.pr, ptr noundef nonnull dereferenceable(5) @.str.134) #13
  %33 = icmp eq i32 %32, 0
  br i1 %33, label %34, label %.thread102

34:                                               ; preds = %11, %31
  br label %56

.thread102:                                       ; preds = %31
  %.pr121 = load ptr, ptr %6, align 8
  %.not.i49 = icmp eq ptr %.pr121, null
  br i1 %.not.i49, label %tok_is_keyword.exit62, label %35

35:                                               ; preds = %.thread102
  %36 = call i32 @strcmp(ptr noundef nonnull dereferenceable(1) %.pr121, ptr noundef nonnull dereferenceable(7) @.str.135) #13
  %37 = icmp eq i32 %36, 0
  br i1 %37, label %38, label %39

38:                                               ; preds = %11, %35
  br label %56

39:                                               ; preds = %35
  %40 = call i32 @strcmp(ptr noundef nonnull dereferenceable(1) %.pr121, ptr noundef nonnull dereferenceable(11) @.str.136) #13
  %41 = icmp eq i32 %40, 0
  br i1 %41, label %42, label %43

42:                                               ; preds = %11, %39
  br label %56

43:                                               ; preds = %39
  %.pr111 = load ptr, ptr %6, align 8
  %.not.i55 = icmp eq ptr %.pr111, null
  br i1 %.not.i55, label %tok_is_keyword.exit62, label %44

44:                                               ; preds = %43
  %45 = call i32 @strcmp(ptr noundef nonnull dereferenceable(1) %.pr111, ptr noundef nonnull dereferenceable(9) @.str.137) #13
  %46 = icmp eq i32 %45, 0
  br i1 %46, label %47, label %48

47:                                               ; preds = %11, %44
  br label %56

48:                                               ; preds = %44
  %49 = call i32 @strcmp(ptr noundef nonnull dereferenceable(1) %.pr111, ptr noundef nonnull dereferenceable(6) @.str.138) #13
  %50 = icmp eq i32 %49, 0
  br i1 %50, label %51, label %.thread117

51:                                               ; preds = %11, %48
  br label %56

.thread117:                                       ; preds = %48
  %.pr123.pr = load ptr, ptr %6, align 8
  %.not.i61 = icmp eq ptr %.pr123.pr, null
  br i1 %.not.i61, label %tok_is_keyword.exit62, label %52

52:                                               ; preds = %.thread117
  %53 = call i32 @strcmp(ptr noundef nonnull dereferenceable(1) %.pr123.pr, ptr noundef nonnull dereferenceable(7) @.str.139) #13
  %54 = icmp eq i32 %53, 0
  br i1 %54, label %55, label %tok_is_keyword.exit62

55:                                               ; preds = %11, %52
  br label %56

tok_is_keyword.exit62:                            ; preds = %17, %26, %43, %.thread102, %14, %11, %52, %.thread117
  call void @plpgsql_yyerror(ptr noundef nonnull %1, ptr noundef null, ptr noundef %2, ptr noundef nonnull @.str.140) #15
  unreachable

56:                                               ; preds = %19, %11, %25, %34, %42, %51, %55, %47, %38, %30
  %.sink = phi i32 [ 1, %25 ], [ 3, %34 ], [ 5, %42 ], [ 7, %51 ], [ 8, %55 ], [ 6, %47 ], [ 4, %38 ], [ 2, %30 ], [ 0, %11 ], [ 0, %19 ]
  store i32 %.sink, ptr %12, align 8
  %57 = call i32 @plpgsql_yylex(ptr noundef nonnull %0, ptr noundef nonnull %1, ptr noundef %2) #12
  store i32 %57, ptr %4, align 4
  switch i32 %57, label %58 [
    i32 270, label %59
    i32 61, label %59
  ]

58:                                               ; preds = %56
  call void @plpgsql_yyerror(ptr noundef nonnull %1, ptr noundef null, ptr noundef %2, ptr noundef nonnull @.str.141) #15
  unreachable

59:                                               ; preds = %56, %56
  %60 = call fastcc ptr @read_sql_construct(i32 noundef 44, i32 noundef 59, i32 noundef 0, ptr noundef nonnull @.str.62, i32 noundef 2, i1 noundef zeroext true, i1 noundef zeroext true, ptr noundef null, ptr noundef nonnull %4, ptr noundef nonnull %0, ptr noundef nonnull %1, ptr noundef %2)
  %61 = getelementptr inbounds nuw i8, ptr %12, i64 8
  store ptr %60, ptr %61, align 8
  %62 = call ptr @lappend(ptr noundef %.038, ptr noundef nonnull %12) #12
  %63 = load i32, ptr %4, align 4
  %64 = icmp eq i32 %63, 59
  call void @llvm.lifetime.end.p0(i64 4, ptr nonnull %4) #12
  br i1 %64, label %65, label %7

65:                                               ; preds = %59
  ret ptr %62
}